; ModuleID = 'source-C-CXX/10/431.c'
source_filename = "source-C-CXX/10/431.c"
target datalayout = "e-m:e-p270:32:32-p271:32:32-p272:64:64-i64:64-f80:128-n8:16:32:64-S128"
target triple = "x86_64-pc-linux-gnu"

@.str = private unnamed_addr constant [7 x i8] c"%d%d%d\00", align 1
@.str.1 = private unnamed_addr constant [4 x i8] c"%d\0A\00", align 1
@switch.table.main = private unnamed_addr constant [11 x i32] [i32 1, i32 0, i32 1, i32 1, i32 2, i32 2, i32 3, i32 4, i32 4, i32 5, i32 5], align 4
@switch.table.main.2 = private unnamed_addr constant [11 x i32] [i32 1, i32 -1, i32 0, i32 0, i32 1, i32 1, i32 2, i32 3, i32 3, i32 4, i32 4], align 4

; Function Attrs: nofree nounwind sspstrong uwtable
define dso_local i32 @main() local_unnamed_addr #0 {
  %1 = alloca i32, align 4
  %2 = alloca i32, align 4
  %3 = alloca i32, align 4
  %4 = bitcast i32* %1 to i8*
  call void @llvm.lifetime.start.p0i8(i64 4, i8* nonnull %4) #3
  %5 = bitcast i32* %2 to i8*
  call void @llvm.lifetime.start.p0i8(i64 4, i8* nonnull %5) #3
  %6 = bitcast i32* %3 to i8*
  call void @llvm.lifetime.start.p0i8(i64 4, i8* nonnull %6) #3
  %7 = call i32 (i8*, ...) @__isoc99_scanf(i8* getelementptr inbounds ([7 x i8], [7 x i8]* @.str, i64 0, i64 0), i32* nonnull %1, i32* nonnull %2, i32* nonnull %3)
  %8 = load i32, i32* %1, align 4, !tbaa !5
  %9 = and i32 %8, 3
  %10 = icmp eq i32 %9, 0
  %11 = srem i32 %8, 100
  %12 = icmp ne i32 %11, 0
  %13 = and i1 %10, %12
  %14 = srem i32 %8, 400
  %15 = icmp eq i32 %14, 0
  %16 = select i1 %13, i1 true, i1 %15
  %17 = load i32, i32* %2, align 4, !tbaa !5
  %18 = add i32 %17, -2
  %19 = icmp ult i32 %18, 11
  br i1 %16, label %20, label %32

20:                                               ; preds = %0
  br i1 %19, label %21, label %25

21:                                               ; preds = %20
  %22 = sext i32 %18 to i64
  %23 = getelementptr inbounds [11 x i32], [11 x i32]* @switch.table.main, i64 0, i64 %22
  %24 = load i32, i32* %23, align 4
  br label %25

25:                                               ; preds = %21, %20
  %26 = phi i32 [ 0, %20 ], [ %24, %21 ]
  %27 = mul i32 %17, 30
  %28 = add i32 %27, -30
  %29 = add nsw i32 %28, %26
  %30 = load i32, i32* %3, align 4, !tbaa !5
  %31 = add nsw i32 %29, %30
  br label %44

32:                                               ; preds = %0
  br i1 %19, label %33, label %37

33:                                               ; preds = %32
  %34 = sext i32 %18 to i64
  %35 = getelementptr inbounds [11 x i32], [11 x i32]* @switch.table.main.2, i64 0, i64 %34
  %36 = load i32, i32* %35, align 4
  br label %37

37:                                               ; preds = %33, %32
  %38 = phi i32 [ 0, %32 ], [ %36, %33 ]
  %39 = mul i32 %17, 30
  %40 = add i32 %39, -30
  %41 = add nsw i32 %40, %38
  %42 = load i32, i32* %3, align 4, !tbaa !5
  %43 = add nsw i32 %41, %42
  br label %44

44:                                               ; preds = %37, %25
  %45 = phi i32 [ %31, %25 ], [ %43, %37 ]
  %46 = call i32 (i8*, ...) @printf(i8* nonnull dereferenceable(1) getelementptr inbounds ([4 x i8], [4 x i8]* @.str.1, i64 0, i64 0), i32 %45)
  call void @llvm.lifetime.end.p0i8(i64 4, i8* nonnull %6) #3
  call void @llvm.lifetime.end.p0i8(i64 4, i8* nonnull %5) #3
  call void @llvm.lifetime.end.p0i8(i64 4, i8* nonnull %4) #3
  ret i32 0
}

; Function Attrs: argmemonly mustprogress nofree nosync nounwind willreturn
declare void @llvm.lifetime.start.p0i8(i64 immarg, i8* nocapture) #1

; Function Attrs: nofree nounwind
declare noundef i32 @__isoc99_scanf(i8* nocapture noundef readonly, ...) local_unnamed_addr #2

; Function Attrs: nofree nounwind
declare noundef i32 @printf(i8* nocapture noundef readonly, ...) local_unnamed_addr #2

; Function Attrs: argmemonly mustprogress nofree nosync nounwind willreturn
declare void @llvm.lifetime.end.p0i8(i64 immarg, i8* nocapture) #1


!llvm.module.flags = !{!0, !1, !2, !3}
!llvm.ident = !{!4}

!0 = !{i32 1, !"wchar_size", i32 4}
!1 = !{i32 7, !"PIC Level", i32 2}
!2 = !{i32 7, !"PIE Level", i32 2}
!3 = !{i32 7, !"uwtable", i32 1}
!4 = !{!"clang version 13.0.0"}
!5 = !{!6, !6, i64 0}
!6 = !{!"int", !7, i64 0}
!7 = !{!"omnipotent char", !8, i64 0}
!8 = !{!"Simple C/C++ TBAA"}
